target datalayout = "e-m:e-p270:32:32-p271:32:32-p272:64:64-i64:64-i128:128-f80:128-n8:16:32:64-S128"
target triple = "x86_64-pc-linux-gnu"

%struct.PHP_SNEFRU_CTX = type { [16 x i32], [2 x i32], i8, [32 x i8] }

; Function Attrs: inlinehint nounwind uwtable
define internal void @SnefruTransform(ptr noundef %0, ptr noundef %1) #4 {
  %3 = alloca ptr, align 8
  %4 = alloca ptr, align 8
  %5 = alloca i32, align 4
  %6 = alloca i32, align 4
  store ptr %0, ptr %3, align 8, !tbaa !4
  store ptr %1, ptr %4, align 8, !tbaa !10
  call void @llvm.lifetime.start.p0(i64 4, ptr %5) #7
  call void @llvm.lifetime.start.p0(i64 4, ptr %6) #7
  store i32 0, ptr %5, align 4, !tbaa !14
  store i32 0, ptr %6, align 4, !tbaa !14
  br label %7

7:                                                ; preds = %50, %2
  %8 = load i32, ptr %5, align 4, !tbaa !14
  %9 = icmp slt i32 %8, 32
  br i1 %9, label %10, label %55

10:                                               ; preds = %7
  %11 = load ptr, ptr %4, align 8, !tbaa !10
  %12 = load i32, ptr %5, align 4, !tbaa !14
  %13 = sext i32 %12 to i64
  %14 = getelementptr inbounds i8, ptr %11, i64 %13
  %15 = load i8, ptr %14, align 1, !tbaa !18
  %16 = zext i8 %15 to i32
  %17 = shl i32 %16, 24
  %18 = load ptr, ptr %4, align 8, !tbaa !10
  %19 = load i32, ptr %5, align 4, !tbaa !14
  %20 = add nsw i32 %19, 1
  %21 = sext i32 %20 to i64
  %22 = getelementptr inbounds i8, ptr %18, i64 %21
  %23 = load i8, ptr %22, align 1, !tbaa !18
  %24 = zext i8 %23 to i32
  %25 = shl i32 %24, 16
  %26 = or i32 %17, %25
  %27 = load ptr, ptr %4, align 8, !tbaa !10
  %28 = load i32, ptr %5, align 4, !tbaa !14
  %29 = add nsw i32 %28, 2
  %30 = sext i32 %29 to i64
  %31 = getelementptr inbounds i8, ptr %27, i64 %30
  %32 = load i8, ptr %31, align 1, !tbaa !18
  %33 = zext i8 %32 to i32
  %34 = shl i32 %33, 8
  %35 = or i32 %26, %34
  %36 = load ptr, ptr %4, align 8, !tbaa !10
  %37 = load i32, ptr %5, align 4, !tbaa !14
  %38 = add nsw i32 %37, 3
  %39 = sext i32 %38 to i64
  %40 = getelementptr inbounds i8, ptr %36, i64 %39
  %41 = load i8, ptr %40, align 1, !tbaa !18
  %42 = zext i8 %41 to i32
  %43 = or i32 %35, %42
  %44 = load ptr, ptr %3, align 8, !tbaa !4
  %45 = getelementptr inbounds nuw %struct.PHP_SNEFRU_CTX, ptr %44, i32 0, i32 0
  %46 = load i32, ptr %6, align 4, !tbaa !14
  %47 = add nsw i32 8, %46
  %48 = sext i32 %47 to i64
  %49 = getelementptr inbounds [16 x i32], ptr %45, i64 0, i64 %48
  store i32 %43, ptr %49, align 4, !tbaa !14
  br label %50

50:                                               ; preds = %10
  %51 = load i32, ptr %5, align 4, !tbaa !14
  %52 = add nsw i32 %51, 4
  store i32 %52, ptr %5, align 4, !tbaa !14
  %53 = load i32, ptr %6, align 4, !tbaa !14
  %54 = add nsw i32 %53, 1
  store i32 %54, ptr %6, align 4, !tbaa !14
  br label %7

55:                                               ; preds = %7
  %56 = load ptr, ptr %3, align 8, !tbaa !4
  %57 = getelementptr inbounds nuw %struct.PHP_SNEFRU_CTX, ptr %56, i32 0, i32 0
  %58 = getelementptr inbounds [16 x i32], ptr %57, i64 0, i64 0
  call void @Snefru(ptr noundef %58)
  %59 = load ptr, ptr %3, align 8, !tbaa !4
  %60 = getelementptr inbounds nuw %struct.PHP_SNEFRU_CTX, ptr %59, i32 0, i32 0
  %61 = getelementptr inbounds [16 x i32], ptr %60, i64 0, i64 8
  call void @explicit_bzero(ptr noundef %61, i64 noundef 32) #7
  call void @llvm.lifetime.end.p0(i64 4, ptr %6) #7
  call void @llvm.lifetime.end.p0(i64 4, ptr %5) #7
  ret void
}

; Function Attrs: nounwind uwtable
define dso_local void @PHP_SNEFRUUpdate(ptr noundef %0, ptr noundef %1, i64 noundef %2) #0 {
  %4 = alloca ptr, align 8
  %5 = alloca ptr, align 8
  %6 = alloca i64, align 8
  %7 = alloca i64, align 8
  %8 = alloca i64, align 8
  store ptr %0, ptr %4, align 8, !tbaa !4
  store ptr %1, ptr %5, align 8, !tbaa !10
  store i64 %2, ptr %6, align 8, !tbaa !12
  %9 = load ptr, ptr %4, align 8, !tbaa !4
  %10 = getelementptr inbounds nuw %struct.PHP_SNEFRU_CTX, ptr %9, i32 0, i32 1
  %11 = getelementptr inbounds [2 x i32], ptr %10, i64 0, i64 1
  %12 = load i32, ptr %11, align 4, !tbaa !14
  %13 = sub i32 -1, %12
  %14 = zext i32 %13 to i64
  %15 = load i64, ptr %6, align 8, !tbaa !12
  %16 = mul i64 %15, 8
  %17 = icmp ult i64 %14, %16
  br i1 %17, label %18, label %43

18:                                               ; preds = %3
  %19 = load ptr, ptr %4, align 8, !tbaa !4
  %20 = getelementptr inbounds nuw %struct.PHP_SNEFRU_CTX, ptr %19, i32 0, i32 1
  %21 = getelementptr inbounds [2 x i32], ptr %20, i64 0, i64 0
  %22 = load i32, ptr %21, align 4, !tbaa !14
  %23 = add i32 %22, 1
  store i32 %23, ptr %21, align 4, !tbaa !14
  %24 = load ptr, ptr %4, align 8, !tbaa !4
  %25 = getelementptr inbounds nuw %struct.PHP_SNEFRU_CTX, ptr %24, i32 0, i32 1
  %26 = getelementptr inbounds [2 x i32], ptr %25, i64 0, i64 1
  %27 = load i32, ptr %26, align 4, !tbaa !14
  %28 = sub i32 -1, %27
  %29 = load ptr, ptr %4, align 8, !tbaa !4
  %30 = getelementptr inbounds nuw %struct.PHP_SNEFRU_CTX, ptr %29, i32 0, i32 1
  %31 = getelementptr inbounds [2 x i32], ptr %30, i64 0, i64 1
  store i32 %28, ptr %31, align 4, !tbaa !14
  %32 = load i64, ptr %6, align 8, !tbaa !12
  %33 = trunc i64 %32 to i32
  %34 = mul i32 %33, 8
  %35 = load ptr, ptr %4, align 8, !tbaa !4
  %36 = getelementptr inbounds nuw %struct.PHP_SNEFRU_CTX, ptr %35, i32 0, i32 1
  %37 = getelementptr inbounds [2 x i32], ptr %36, i64 0, i64 1
  %38 = load i32, ptr %37, align 4, !tbaa !14
  %39 = sub i32 %34, %38
  %40 = load ptr, ptr %4, align 8, !tbaa !4
  %41 = getelementptr inbounds nuw %struct.PHP_SNEFRU_CTX, ptr %40, i32 0, i32 1
  %42 = getelementptr inbounds [2 x i32], ptr %41, i64 0, i64 1
  store i32 %39, ptr %42, align 4, !tbaa !14
  br label %52

43:                                               ; preds = %3
  %44 = load i64, ptr %6, align 8, !tbaa !12
  %45 = trunc i64 %44 to i32
  %46 = mul i32 %45, 8
  %47 = load ptr, ptr %4, align 8, !tbaa !4
  %48 = getelementptr inbounds nuw %struct.PHP_SNEFRU_CTX, ptr %47, i32 0, i32 1
  %49 = getelementptr inbounds [2 x i32], ptr %48, i64 0, i64 1
  %50 = load i32, ptr %49, align 4, !tbaa !14
  %51 = add i32 %50, %46
  store i32 %51, ptr %49, align 4, !tbaa !14
  br label %52

52:                                               ; preds = %43, %18
  %53 = load ptr, ptr %4, align 8, !tbaa !4
  %54 = getelementptr inbounds nuw %struct.PHP_SNEFRU_CTX, ptr %53, i32 0, i32 2
  %55 = load i8, ptr %54, align 4, !tbaa !16
  %56 = zext i8 %55 to i64
  %57 = load i64, ptr %6, align 8, !tbaa !12
  %58 = add i64 %56, %57
  %59 = icmp ult i64 %58, 32
  br i1 %59, label %60, label %79

60:                                               ; preds = %52
  %61 = load ptr, ptr %4, align 8, !tbaa !4
  %62 = getelementptr inbounds nuw %struct.PHP_SNEFRU_CTX, ptr %61, i32 0, i32 3
  %63 = load ptr, ptr %4, align 8, !tbaa !4
  %64 = getelementptr inbounds nuw %struct.PHP_SNEFRU_CTX, ptr %63, i32 0, i32 2
  %65 = load i8, ptr %64, align 4, !tbaa !16
  %66 = zext i8 %65 to i64
  %67 = getelementptr inbounds nuw [32 x i8], ptr %62, i64 0, i64 %66
  %68 = load ptr, ptr %5, align 8, !tbaa !10
  %69 = load i64, ptr %6, align 8, !tbaa !12
  call void @llvm.memcpy.p0.p0.i64(ptr align 1 %67, ptr align 1 %68, i64 %69, i1 false)
  %70 = load i64, ptr %6, align 8, !tbaa !12
  %71 = trunc i64 %70 to i8
  %72 = zext i8 %71 to i32
  %73 = load ptr, ptr %4, align 8, !tbaa !4
  %74 = getelementptr inbounds nuw %struct.PHP_SNEFRU_CTX, ptr %73, i32 0, i32 2
  %75 = load i8, ptr %74, align 4, !tbaa !16
  %76 = zext i8 %75 to i32
  %77 = add nsw i32 %76, %72
  %78 = trunc i32 %77 to i8
  store i8 %78, ptr %74, align 4, !tbaa !16
  br label %143

79:                                               ; preds = %52
  call void @llvm.lifetime.start.p0(i64 8, ptr %7) #7
  store i64 0, ptr %7, align 8, !tbaa !12
  call void @llvm.lifetime.start.p0(i64 8, ptr %8) #7
  %80 = load ptr, ptr %4, align 8, !tbaa !4
  %81 = getelementptr inbounds nuw %struct.PHP_SNEFRU_CTX, ptr %80, i32 0, i32 2
  %82 = load i8, ptr %81, align 4, !tbaa !16
  %83 = zext i8 %82 to i64
  %84 = load i64, ptr %6, align 8, !tbaa !12
  %85 = add i64 %83, %84
  %86 = urem i64 %85, 32
  store i64 %86, ptr %8, align 8, !tbaa !12
  %87 = load ptr, ptr %4, align 8, !tbaa !4
  %88 = getelementptr inbounds nuw %struct.PHP_SNEFRU_CTX, ptr %87, i32 0, i32 2
  %89 = load i8, ptr %88, align 4, !tbaa !16
  %90 = icmp ne i8 %89, 0
  br i1 %90, label %91, label %111

91:                                               ; preds = %79
  %92 = load ptr, ptr %4, align 8, !tbaa !4
  %93 = getelementptr inbounds nuw %struct.PHP_SNEFRU_CTX, ptr %92, i32 0, i32 2
  %94 = load i8, ptr %93, align 4, !tbaa !16
  %95 = zext i8 %94 to i32
  %96 = sub nsw i32 32, %95
  %97 = sext i32 %96 to i64
  store i64 %97, ptr %7, align 8, !tbaa !12
  %98 = load ptr, ptr %4, align 8, !tbaa !4
  %99 = getelementptr inbounds nuw %struct.PHP_SNEFRU_CTX, ptr %98, i32 0, i32 3
  %100 = load ptr, ptr %4, align 8, !tbaa !4
  %101 = getelementptr inbounds nuw %struct.PHP_SNEFRU_CTX, ptr %100, i32 0, i32 2
  %102 = load i8, ptr %101, align 4, !tbaa !16
  %103 = zext i8 %102 to i64
  %104 = getelementptr inbounds nuw [32 x i8], ptr %99, i64 0, i64 %103
  %105 = load ptr, ptr %5, align 8, !tbaa !10
  %106 = load i64, ptr %7, align 8, !tbaa !12
  call void @llvm.memcpy.p0.p0.i64(ptr align 1 %104, ptr align 1 %105, i64 %106, i1 false)
  %107 = load ptr, ptr %4, align 8, !tbaa !4
  %108 = load ptr, ptr %4, align 8, !tbaa !4
  %109 = getelementptr inbounds nuw %struct.PHP_SNEFRU_CTX, ptr %108, i32 0, i32 3
  %110 = getelementptr inbounds [32 x i8], ptr %109, i64 0, i64 0
  call void @SnefruTransform(ptr noundef %107, ptr noundef %110)
  br label %111

111:                                              ; preds = %91, %79
  br label %112

112:                                              ; preds = %122, %111
  %113 = load i64, ptr %7, align 8, !tbaa !12
  %114 = add i64 %113, 32
  %115 = load i64, ptr %6, align 8, !tbaa !12
  %116 = icmp ule i64 %114, %115
  br i1 %116, label %117, label %125

117:                                              ; preds = %112
  %118 = load ptr, ptr %4, align 8, !tbaa !4
  %119 = load ptr, ptr %5, align 8, !tbaa !10
  %120 = load i64, ptr %7, align 8, !tbaa !12
  %121 = getelementptr inbounds nuw i8, ptr %119, i64 %120
  call void @SnefruTransform(ptr noundef %118, ptr noundef %121)
  br label %122

122:                                              ; preds = %117
  %123 = load i64, ptr %7, align 8, !tbaa !12
  %124 = add i64 %123, 32
  store i64 %124, ptr %7, align 8, !tbaa !12
  br label %112

125:                                              ; preds = %112
  %126 = load ptr, ptr %4, align 8, !tbaa !4
  %127 = getelementptr inbounds nuw %struct.PHP_SNEFRU_CTX, ptr %126, i32 0, i32 3
  %128 = getelementptr inbounds [32 x i8], ptr %127, i64 0, i64 0
  %129 = load ptr, ptr %5, align 8, !tbaa !10
  %130 = load i64, ptr %7, align 8, !tbaa !12
  %131 = getelementptr inbounds nuw i8, ptr %129, i64 %130
  %132 = load i64, ptr %8, align 8, !tbaa !12
  call void @llvm.memcpy.p0.p0.i64(ptr align 1 %128, ptr align 1 %131, i64 %132, i1 false)
  %133 = load ptr, ptr %4, align 8, !tbaa !4
  %134 = getelementptr inbounds nuw %struct.PHP_SNEFRU_CTX, ptr %133, i32 0, i32 3
  %135 = load i64, ptr %8, align 8, !tbaa !12
  %136 = getelementptr inbounds nuw [32 x i8], ptr %134, i64 0, i64 %135
  %137 = load i64, ptr %8, align 8, !tbaa !12
  %138 = sub i64 32, %137
  call void @explicit_bzero(ptr noundef %136, i64 noundef %138) #7
  %139 = load i64, ptr %8, align 8, !tbaa !12
  %140 = trunc i64 %139 to i8
  %141 = load ptr, ptr %4, align 8, !tbaa !4
  %142 = getelementptr inbounds nuw %struct.PHP_SNEFRU_CTX, ptr %141, i32 0, i32 2
  store i8 %140, ptr %142, align 4, !tbaa !16
  call void @llvm.lifetime.end.p0(i64 8, ptr %8) #7
  call void @llvm.lifetime.end.p0(i64 8, ptr %7) #7
  br label %143

143:                                              ; preds = %125, %60
  ret void
}