; Function Attrs: nounwind uwtable
define dso_local void @PHP_SNEFRUUpdate(ptr noundef %0, ptr noundef readonly captures(none) %1, i64 noundef %2) #2 {
  %4 = getelementptr inbounds nuw i8, ptr %0, i64 68
  %5 = load i32, ptr %4, align 4, !tbaa !4
  %6 = xor i32 %5, -1
  %7 = zext i32 %6 to i64
  %8 = shl i64 %2, 3
  %9 = icmp ugt i64 %8, %7
  br i1 %9, label %10, label %17

10:                                               ; preds = %3
  %11 = getelementptr inbounds nuw i8, ptr %0, i64 64
  %12 = load i32, ptr %11, align 4, !tbaa !4
  %13 = add i32 %12, 1
  store i32 %13, ptr %11, align 4, !tbaa !4
  %14 = trunc i64 %2 to i32
  %15 = shl i32 %14, 3
  %.neg = or disjoint i32 %15, 1
  %16 = add i32 %.neg, %5
  br label %21

17:                                               ; preds = %3
  %18 = trunc i64 %2 to i32
  %19 = shl i32 %18, 3
  %20 = add i32 %5, %19
  br label %21

21:                                               ; preds = %17, %10
  %storemerge = phi i32 [ %20, %17 ], [ %16, %10 ]
  store i32 %storemerge, ptr %4, align 4, !tbaa !4
  %22 = getelementptr inbounds nuw i8, ptr %0, i64 72
  %23 = load i8, ptr %22, align 4, !tbaa !8
  %24 = zext i8 %23 to i64
  %25 = add i64 %2, %24
  %26 = icmp ult i64 %25, 32
  br i1 %26, label %27, label %32

27:                                               ; preds = %21
  %28 = getelementptr inbounds nuw i8, ptr %0, i64 73
  %29 = getelementptr inbounds nuw [32 x i8], ptr %28, i64 0, i64 %24
  tail call void @llvm.memcpy.p0.p0.i64(ptr nonnull align 1 %29, ptr align 1 %1, i64 %2, i1 false)
  %30 = trunc i64 %2 to i8
  %31 = add i8 %23, %30
  br label %99

32:                                               ; preds = %21
  %33 = and i64 %25, 31
  %.not = icmp eq i8 %23, 0
  br i1 %.not, label %63, label %34

34:                                               ; preds = %32
  %35 = sub nsw i64 32, %24
  %36 = getelementptr inbounds nuw i8, ptr %0, i64 73
  %37 = getelementptr inbounds nuw [32 x i8], ptr %36, i64 0, i64 %24
  tail call void @llvm.memcpy.p0.p0.i64(ptr nonnull align 1 %37, ptr align 1 %1, i64 %35, i1 false)
  br label %38

38:                                               ; preds = %38, %34
  %indvars.iv17.i = phi i64 [ 0, %34 ], [ %indvars.iv.next18.i, %38 ]
  %indvars.iv.i = phi i64 [ 0, %34 ], [ %indvars.iv.next.i, %38 ]
  %39 = getelementptr inbounds nuw i8, ptr %36, i64 %indvars.iv17.i
  %40 = load i8, ptr %39, align 1, !tbaa !10
  %41 = zext i8 %40 to i32
  %42 = shl nuw i32 %41, 24
  %43 = or disjoint i64 %indvars.iv17.i, 1
  %44 = getelementptr inbounds nuw i8, ptr %36, i64 %43
  %45 = load i8, ptr %44, align 1, !tbaa !10
  %46 = zext i8 %45 to i32
  %47 = shl nuw nsw i32 %46, 16
  %48 = or disjoint i32 %47, %42
  %49 = or disjoint i64 %indvars.iv17.i, 2
  %50 = getelementptr inbounds nuw i8, ptr %36, i64 %49
  %51 = load i8, ptr %50, align 1, !tbaa !10
  %52 = zext i8 %51 to i32
  %53 = shl nuw nsw i32 %52, 8
  %54 = or disjoint i32 %48, %53
  %55 = or disjoint i64 %indvars.iv17.i, 3
  %56 = getelementptr inbounds nuw i8, ptr %36, i64 %55
  %57 = load i8, ptr %56, align 1, !tbaa !10
  %58 = zext i8 %57 to i32
  %59 = or disjoint i32 %54, %58
  %60 = add nuw nsw i64 %indvars.iv.i, 8
  %61 = getelementptr inbounds nuw [16 x i32], ptr %0, i64 0, i64 %60
  store i32 %59, ptr %61, align 4, !tbaa !4
  %indvars.iv.next18.i = add nuw nsw i64 %indvars.iv17.i, 4
  %indvars.iv.next.i = add nuw nsw i64 %indvars.iv.i, 1
  %exitcond.not.i = icmp eq i64 %indvars.iv.next.i, 8
  br i1 %exitcond.not.i, label %SnefruTransform.exit, label %38

SnefruTransform.exit:                             ; preds = %38
  tail call fastcc void @Snefru(ptr noundef nonnull %0)
  %62 = getelementptr inbounds nuw i8, ptr %0, i64 32
  tail call void @explicit_bzero(ptr noundef nonnull %62, i64 noundef 32) #7
  br label %63

63:                                               ; preds = %SnefruTransform.exit, %32
  %.0 = phi i64 [ %35, %SnefruTransform.exit ], [ 0, %32 ]
  %64 = add nsw i64 %.0, 32
  %.not4553 = icmp ugt i64 %64, %2
  br i1 %.not4553, label %._crit_edge, label %.lr.ph

.lr.ph:                                           ; preds = %63
  %65 = getelementptr inbounds nuw i8, ptr %0, i64 32
  br label %66

66:                                               ; preds = %.lr.ph, %SnefruTransform.exit52
  %67 = phi i64 [ %64, %.lr.ph ], [ %93, %SnefruTransform.exit52 ]
  %.154 = phi i64 [ %.0, %.lr.ph ], [ %67, %SnefruTransform.exit52 ]
  %68 = getelementptr inbounds nuw i8, ptr %1, i64 %.154
  br label %69

69:                                               ; preds = %69, %66
  %indvars.iv17.i47 = phi i64 [ 0, %66 ], [ %indvars.iv.next18.i49, %69 ]
  %indvars.iv.i48 = phi i64 [ 0, %66 ], [ %indvars.iv.next.i50, %69 ]
  %70 = getelementptr inbounds nuw i8, ptr %68, i64 %indvars.iv17.i47
  %71 = load i8, ptr %70, align 1, !tbaa !10
  %72 = zext i8 %71 to i32
  %73 = shl nuw i32 %72, 24
  %74 = or disjoint i64 %indvars.iv17.i47, 1
  %75 = getelementptr inbounds nuw i8, ptr %68, i64 %74
  %76 = load i8, ptr %75, align 1, !tbaa !10
  %77 = zext i8 %76 to i32
  %78 = shl nuw nsw i32 %77, 16
  %79 = or disjoint i32 %78, %73
  %80 = or disjoint i64 %indvars.iv17.i47, 2
  %81 = getelementptr inbounds nuw i8, ptr %68, i64 %80
  %82 = load i8, ptr %81, align 1, !tbaa !10
  %83 = zext i8 %82 to i32
  %84 = shl nuw nsw i32 %83, 8
  %85 = or disjoint i32 %79, %84
  %86 = or disjoint i64 %indvars.iv17.i47, 3
  %87 = getelementptr inbounds nuw i8, ptr %68, i64 %86
  %88 = load i8, ptr %87, align 1, !tbaa !10
  %89 = zext i8 %88 to i32
  %90 = or disjoint i32 %85, %89
  %91 = add nuw nsw i64 %indvars.iv.i48, 8
  %92 = getelementptr inbounds nuw [16 x i32], ptr %0, i64 0, i64 %91
  store i32 %90, ptr %92, align 4, !tbaa !4
  %indvars.iv.next18.i49 = add nuw nsw i64 %indvars.iv17.i47, 4
  %indvars.iv.next.i50 = add nuw nsw i64 %indvars.iv.i48, 1
  %exitcond.not.i51 = icmp eq i64 %indvars.iv.next.i50, 8
  br i1 %exitcond.not.i51, label %SnefruTransform.exit52, label %69

SnefruTransform.exit52:                           ; preds = %69
  tail call fastcc void @Snefru(ptr noundef nonnull %0)
  tail call void @explicit_bzero(ptr noundef nonnull %65, i64 noundef 32) #7
  %93 = add i64 %67, 32
  %.not45 = icmp ugt i64 %93, %2
  br i1 %.not45, label %._crit_edge, label %66

._crit_edge:                                      ; preds = %SnefruTransform.exit52, %63
  %.1.lcssa = phi i64 [ %.0, %63 ], [ %67, %SnefruTransform.exit52 ]
  %94 = getelementptr inbounds nuw i8, ptr %0, i64 73
  %95 = getelementptr inbounds nuw i8, ptr %1, i64 %.1.lcssa
  tail call void @llvm.memcpy.p0.p0.i64(ptr nonnull align 1 %94, ptr align 1 %95, i64 %33, i1 false)
  %96 = getelementptr inbounds nuw [32 x i8], ptr %94, i64 0, i64 %33
  %97 = sub nuw nsw i64 32, %33
  tail call void @explicit_bzero(ptr noundef nonnull %96, i64 noundef %97) #7
  %98 = trunc nuw nsw i64 %33 to i8
  br label %99

99:                                               ; preds = %._crit_edge, %27
  %storemerge46 = phi i8 [ %98, %._crit_edge ], [ %31, %27 ]
  store i8 %storemerge46, ptr %22, align 4, !tbaa !8
  ret void
}